
bin\Release\Lab8.elf:     file format elf32-avr

Sections:
Idx Name          Size      VMA       LMA       File off  Algn
  0 .data         0000000e  00800100  00000b92  00000c26  2**0
                  CONTENTS, ALLOC, LOAD, DATA
  1 .text         00000b92  00000000  00000000  00000094  2**1
                  CONTENTS, ALLOC, LOAD, READONLY, CODE
  2 .bss          00000069  0080010e  0080010e  00000c34  2**0
                  ALLOC

Disassembly of section .text:

00000000 <__vectors>:
   0:	0c 94 34 00 	jmp	0x68	; 0x68 <__ctors_end>
   4:	0c 94 51 00 	jmp	0xa2	; 0xa2 <__bad_interrupt>
   8:	0c 94 51 00 	jmp	0xa2	; 0xa2 <__bad_interrupt>
   c:	0c 94 51 00 	jmp	0xa2	; 0xa2 <__bad_interrupt>
  10:	0c 94 51 00 	jmp	0xa2	; 0xa2 <__bad_interrupt>
  14:	0c 94 51 00 	jmp	0xa2	; 0xa2 <__bad_interrupt>
  18:	0c 94 51 00 	jmp	0xa2	; 0xa2 <__bad_interrupt>
  1c:	0c 94 0d 05 	jmp	0xa1a	; 0xa1a <__vector_7>
  20:	0c 94 51 00 	jmp	0xa2	; 0xa2 <__bad_interrupt>
  24:	0c 94 51 00 	jmp	0xa2	; 0xa2 <__bad_interrupt>
  28:	0c 94 51 00 	jmp	0xa2	; 0xa2 <__bad_interrupt>
  2c:	0c 94 49 04 	jmp	0x892	; 0x892 <__vector_11>
  30:	0c 94 51 00 	jmp	0xa2	; 0xa2 <__bad_interrupt>
  34:	0c 94 51 00 	jmp	0xa2	; 0xa2 <__bad_interrupt>
  38:	0c 94 51 00 	jmp	0xa2	; 0xa2 <__bad_interrupt>
  3c:	0c 94 51 00 	jmp	0xa2	; 0xa2 <__bad_interrupt>
  40:	0c 94 51 00 	jmp	0xa2	; 0xa2 <__bad_interrupt>
  44:	0c 94 51 00 	jmp	0xa2	; 0xa2 <__bad_interrupt>
  48:	0c 94 3c 03 	jmp	0x678	; 0x678 <__vector_18>
  4c:	0c 94 02 03 	jmp	0x604	; 0x604 <__vector_19>
  50:	0c 94 51 00 	jmp	0xa2	; 0xa2 <__bad_interrupt>
  54:	0c 94 51 00 	jmp	0xa2	; 0xa2 <__bad_interrupt>
  58:	0c 94 51 00 	jmp	0xa2	; 0xa2 <__bad_interrupt>
  5c:	0c 94 51 00 	jmp	0xa2	; 0xa2 <__bad_interrupt>
  60:	0c 94 51 00 	jmp	0xa2	; 0xa2 <__bad_interrupt>
  64:	0c 94 51 00 	jmp	0xa2	; 0xa2 <__bad_interrupt>

00000068 <__ctors_end>:
  68:	11 24       	eor	r1, r1
  6a:	1f be       	out	0x3f, r1	; 63
  6c:	cf ef       	ldi	r28, 0xFF	; 255
  6e:	d8 e0       	ldi	r29, 0x08	; 8
  70:	de bf       	out	0x3e, r29	; 62
  72:	cd bf       	out	0x3d, r28	; 61

00000074 <__do_copy_data>:
  74:	11 e0       	ldi	r17, 0x01	; 1
  76:	a0 e0       	ldi	r26, 0x00	; 0
  78:	b1 e0       	ldi	r27, 0x01	; 1
  7a:	e2 e9       	ldi	r30, 0x92	; 146
  7c:	fb e0       	ldi	r31, 0x0B	; 11
  7e:	02 c0       	rjmp	.+4      	; 0x84 <.do_copy_data_start>

00000080 <.do_copy_data_loop>:
  80:	05 90       	lpm	r0, Z+
  82:	0d 92       	st	X+, r0

00000084 <.do_copy_data_start>:
  84:	ae 30       	cpi	r26, 0x0E	; 14
  86:	b1 07       	cpc	r27, r17
  88:	d9 f7       	brne	.-10     	; 0x80 <.do_copy_data_loop>

0000008a <__do_clear_bss>:
  8a:	11 e0       	ldi	r17, 0x01	; 1
  8c:	ae e0       	ldi	r26, 0x0E	; 14
  8e:	b1 e0       	ldi	r27, 0x01	; 1
  90:	01 c0       	rjmp	.+2      	; 0x94 <.do_clear_bss_start>

00000092 <.do_clear_bss_loop>:
  92:	1d 92       	st	X+, r1

00000094 <.do_clear_bss_start>:
  94:	a7 37       	cpi	r26, 0x77	; 119
  96:	b1 07       	cpc	r27, r17
  98:	e1 f7       	brne	.-8      	; 0x92 <.do_clear_bss_loop>
  9a:	0e 94 a4 02 	call	0x548	; 0x548 <main>
  9e:	0c 94 c7 05 	jmp	0xb8e	; 0xb8e <_exit>

000000a2 <__bad_interrupt>:
  a2:	0c 94 00 00 	jmp	0	; 0x0 <__vectors>

000000a6 <LCD_SetMarker>:
  a6:	88 23       	and	r24, r24
  a8:	19 f4       	brne	.+6      	; 0xb0 <LCD_SetMarker+0xa>
  aa:	10 92 0e 01 	sts	0x010E, r1
  ae:	08 95       	ret
  b0:	80 e8       	ldi	r24, 0x80	; 128
  b2:	80 93 0e 01 	sts	0x010E, r24
  b6:	08 95       	ret

000000b8 <LCD_WriteInst>:
  b8:	98 2f       	mov	r25, r24
  ba:	92 95       	swap	r25
  bc:	9f 70       	andi	r25, 0x0F	; 15
  be:	28 2f       	mov	r18, r24
  c0:	2f 70       	andi	r18, 0x0F	; 15
  c2:	80 91 0e 01 	lds	r24, 0x010E
  c6:	88 23       	and	r24, r24
  c8:	11 f0       	breq	.+4      	; 0xce <LCD_WriteInst+0x16>
  ca:	90 68       	ori	r25, 0x80	; 128
  cc:	20 68       	ori	r18, 0x80	; 128
  ce:	95 b9       	out	0x05, r25	; 5
  d0:	95 b9       	out	0x05, r25	; 5
  d2:	89 2f       	mov	r24, r25
  d4:	80 64       	ori	r24, 0x40	; 64
  d6:	85 b9       	out	0x05, r24	; 5
  d8:	85 b9       	out	0x05, r24	; 5
  da:	95 b9       	out	0x05, r25	; 5
  dc:	95 b9       	out	0x05, r25	; 5
  de:	25 b9       	out	0x05, r18	; 5
  e0:	25 b9       	out	0x05, r18	; 5
  e2:	82 2f       	mov	r24, r18
  e4:	80 64       	ori	r24, 0x40	; 64
  e6:	85 b9       	out	0x05, r24	; 5
  e8:	85 b9       	out	0x05, r24	; 5
  ea:	25 b9       	out	0x05, r18	; 5
  ec:	25 b9       	out	0x05, r18	; 5
  ee:	15 b8       	out	0x05, r1	; 5
  f0:	8a e6       	ldi	r24, 0x6A	; 106
  f2:	8a 95       	dec	r24
  f4:	f1 f7       	brne	.-4      	; 0xf2 <LCD_WriteInst+0x3a>
  f6:	08 95       	ret

000000f8 <LCD_WriteData>:
  f8:	48 2f       	mov	r20, r24
  fa:	42 95       	swap	r20
  fc:	4f 70       	andi	r20, 0x0F	; 15
  fe:	94 2f       	mov	r25, r20
 100:	90 61       	ori	r25, 0x10	; 16
 102:	38 2f       	mov	r19, r24
 104:	3f 70       	andi	r19, 0x0F	; 15
 106:	23 2f       	mov	r18, r19
 108:	20 61       	ori	r18, 0x10	; 16
 10a:	80 91 0e 01 	lds	r24, 0x010E
 10e:	88 23       	and	r24, r24
 110:	21 f0       	breq	.+8      	; 0x11a <LCD_WriteData+0x22>
 112:	94 2f       	mov	r25, r20
 114:	90 69       	ori	r25, 0x90	; 144
 116:	23 2f       	mov	r18, r19
 118:	20 69       	ori	r18, 0x90	; 144
 11a:	95 b9       	out	0x05, r25	; 5
 11c:	95 b9       	out	0x05, r25	; 5
 11e:	89 2f       	mov	r24, r25
 120:	80 64       	ori	r24, 0x40	; 64
 122:	85 b9       	out	0x05, r24	; 5
 124:	85 b9       	out	0x05, r24	; 5
 126:	95 b9       	out	0x05, r25	; 5
 128:	95 b9       	out	0x05, r25	; 5
 12a:	25 b9       	out	0x05, r18	; 5
 12c:	25 b9       	out	0x05, r18	; 5
 12e:	82 2f       	mov	r24, r18
 130:	80 64       	ori	r24, 0x40	; 64
 132:	85 b9       	out	0x05, r24	; 5
 134:	85 b9       	out	0x05, r24	; 5
 136:	25 b9       	out	0x05, r18	; 5
 138:	25 b9       	out	0x05, r18	; 5
 13a:	15 b8       	out	0x05, r1	; 5
 13c:	85 e8       	ldi	r24, 0x85	; 133
 13e:	8a 95       	dec	r24
 140:	f1 f7       	brne	.-4      	; 0x13e <LCD_WriteData+0x46>
 142:	08 95       	ret

00000144 <LCD_WriteString>:
 144:	fc 01       	movw	r30, r24
 146:	30 81       	ld	r19, Z
 148:	33 23       	and	r19, r19
 14a:	21 f1       	breq	.+72     	; 0x194 <LCD_WriteString+0x50>
 14c:	80 91 0e 01 	lds	r24, 0x010E
 150:	88 23       	and	r24, r24
 152:	09 f1       	breq	.+66     	; 0x196 <LCD_WriteString+0x52>
 154:	45 e8       	ldi	r20, 0x85	; 133
 156:	23 2f       	mov	r18, r19
 158:	2f 70       	andi	r18, 0x0F	; 15
 15a:	83 2f       	mov	r24, r19
 15c:	82 95       	swap	r24
 15e:	8f 70       	andi	r24, 0x0F	; 15
 160:	98 2f       	mov	r25, r24
 162:	90 69       	ori	r25, 0x90	; 144
 164:	32 2f       	mov	r19, r18
 166:	30 69       	ori	r19, 0x90	; 144
 168:	95 b9       	out	0x05, r25	; 5
 16a:	95 b9       	out	0x05, r25	; 5
 16c:	80 6d       	ori	r24, 0xD0	; 208
 16e:	85 b9       	out	0x05, r24	; 5
 170:	85 b9       	out	0x05, r24	; 5
 172:	95 b9       	out	0x05, r25	; 5
 174:	95 b9       	out	0x05, r25	; 5
 176:	35 b9       	out	0x05, r19	; 5
 178:	35 b9       	out	0x05, r19	; 5
 17a:	20 6d       	ori	r18, 0xD0	; 208
 17c:	25 b9       	out	0x05, r18	; 5
 17e:	25 b9       	out	0x05, r18	; 5
 180:	35 b9       	out	0x05, r19	; 5
 182:	35 b9       	out	0x05, r19	; 5
 184:	15 b8       	out	0x05, r1	; 5
 186:	84 2f       	mov	r24, r20
 188:	8a 95       	dec	r24
 18a:	f1 f7       	brne	.-4      	; 0x188 <LCD_WriteString+0x44>
 18c:	31 96       	adiw	r30, 0x01	; 1
 18e:	30 81       	ld	r19, Z
 190:	33 23       	and	r19, r19
 192:	09 f7       	brne	.-62     	; 0x156 <LCD_WriteString+0x12>
 194:	08 95       	ret
 196:	45 e8       	ldi	r20, 0x85	; 133
 198:	83 2f       	mov	r24, r19
 19a:	82 95       	swap	r24
 19c:	8f 70       	andi	r24, 0x0F	; 15
 19e:	98 2f       	mov	r25, r24
 1a0:	90 61       	ori	r25, 0x10	; 16
 1a2:	23 2f       	mov	r18, r19
 1a4:	2f 70       	andi	r18, 0x0F	; 15
 1a6:	32 2f       	mov	r19, r18
 1a8:	30 61       	ori	r19, 0x10	; 16
 1aa:	95 b9       	out	0x05, r25	; 5
 1ac:	95 b9       	out	0x05, r25	; 5
 1ae:	80 65       	ori	r24, 0x50	; 80
 1b0:	85 b9       	out	0x05, r24	; 5
 1b2:	85 b9       	out	0x05, r24	; 5
 1b4:	95 b9       	out	0x05, r25	; 5
 1b6:	95 b9       	out	0x05, r25	; 5
 1b8:	35 b9       	out	0x05, r19	; 5
 1ba:	35 b9       	out	0x05, r19	; 5
 1bc:	20 65       	ori	r18, 0x50	; 80
 1be:	25 b9       	out	0x05, r18	; 5
 1c0:	25 b9       	out	0x05, r18	; 5
 1c2:	35 b9       	out	0x05, r19	; 5
 1c4:	35 b9       	out	0x05, r19	; 5
 1c6:	15 b8       	out	0x05, r1	; 5
 1c8:	84 2f       	mov	r24, r20
 1ca:	8a 95       	dec	r24
 1cc:	f1 f7       	brne	.-4      	; 0x1ca <LCD_WriteString+0x86>
 1ce:	31 96       	adiw	r30, 0x01	; 1
 1d0:	30 81       	ld	r19, Z
 1d2:	33 23       	and	r19, r19
 1d4:	09 f7       	brne	.-62     	; 0x198 <LCD_WriteString+0x54>
 1d6:	08 95       	ret

000001d8 <LCD_Clear>:
 1d8:	40 91 0e 01 	lds	r20, 0x010E
 1dc:	44 23       	and	r20, r20
 1de:	99 f1       	breq	.+102    	; 0x246 <LCD_Clear+0x6e>
 1e0:	90 e8       	ldi	r25, 0x80	; 128
 1e2:	21 e8       	ldi	r18, 0x81	; 129
 1e4:	80 ec       	ldi	r24, 0xC0	; 192
 1e6:	31 ec       	ldi	r19, 0xC1	; 193
 1e8:	95 b9       	out	0x05, r25	; 5
 1ea:	95 b9       	out	0x05, r25	; 5
 1ec:	85 b9       	out	0x05, r24	; 5
 1ee:	85 b9       	out	0x05, r24	; 5
 1f0:	95 b9       	out	0x05, r25	; 5
 1f2:	95 b9       	out	0x05, r25	; 5
 1f4:	25 b9       	out	0x05, r18	; 5
 1f6:	25 b9       	out	0x05, r18	; 5
 1f8:	35 b9       	out	0x05, r19	; 5
 1fa:	35 b9       	out	0x05, r19	; 5
 1fc:	25 b9       	out	0x05, r18	; 5
 1fe:	25 b9       	out	0x05, r18	; 5
 200:	15 b8       	out	0x05, r1	; 5
 202:	8a e6       	ldi	r24, 0x6A	; 106
 204:	8a 95       	dec	r24
 206:	f1 f7       	brne	.-4      	; 0x204 <LCD_Clear+0x2c>
 208:	80 ea       	ldi	r24, 0xA0	; 160
 20a:	9f e0       	ldi	r25, 0x0F	; 15
 20c:	01 97       	sbiw	r24, 0x01	; 1
 20e:	f1 f7       	brne	.-4      	; 0x20c <LCD_Clear+0x34>
 210:	44 23       	and	r20, r20
 212:	f1 f0       	breq	.+60     	; 0x250 <LCD_Clear+0x78>
 214:	90 e8       	ldi	r25, 0x80	; 128
 216:	22 e8       	ldi	r18, 0x82	; 130
 218:	80 ec       	ldi	r24, 0xC0	; 192
 21a:	32 ec       	ldi	r19, 0xC2	; 194
 21c:	95 b9       	out	0x05, r25	; 5
 21e:	95 b9       	out	0x05, r25	; 5
 220:	85 b9       	out	0x05, r24	; 5
 222:	85 b9       	out	0x05, r24	; 5
 224:	95 b9       	out	0x05, r25	; 5
 226:	95 b9       	out	0x05, r25	; 5
 228:	25 b9       	out	0x05, r18	; 5
 22a:	25 b9       	out	0x05, r18	; 5
 22c:	35 b9       	out	0x05, r19	; 5
 22e:	35 b9       	out	0x05, r19	; 5
 230:	25 b9       	out	0x05, r18	; 5
 232:	25 b9       	out	0x05, r18	; 5
 234:	15 b8       	out	0x05, r1	; 5
 236:	8a e6       	ldi	r24, 0x6A	; 106
 238:	8a 95       	dec	r24
 23a:	f1 f7       	brne	.-4      	; 0x238 <LCD_Clear+0x60>
 23c:	80 ea       	ldi	r24, 0xA0	; 160
 23e:	9f e0       	ldi	r25, 0x0F	; 15
 240:	01 97       	sbiw	r24, 0x01	; 1
 242:	f1 f7       	brne	.-4      	; 0x240 <LCD_Clear+0x68>
 244:	08 95       	ret
 246:	90 e0       	ldi	r25, 0x00	; 0
 248:	21 e0       	ldi	r18, 0x01	; 1
 24a:	80 e4       	ldi	r24, 0x40	; 64
 24c:	31 e4       	ldi	r19, 0x41	; 65
 24e:	cc cf       	rjmp	.-104    	; 0x1e8 <LCD_Clear+0x10>
 250:	90 e0       	ldi	r25, 0x00	; 0
 252:	22 e0       	ldi	r18, 0x02	; 2
 254:	80 e4       	ldi	r24, 0x40	; 64
 256:	32 e4       	ldi	r19, 0x42	; 66
 258:	e1 cf       	rjmp	.-62     	; 0x21c <LCD_Clear+0x44>

0000025a <LCD_MoveCursor>:
 25a:	81 30       	cpi	r24, 0x01	; 1
 25c:	29 f1       	breq	.+74     	; 0x2a8 <LCD_MoveCursor+0x4e>
 25e:	90 ec       	ldi	r25, 0xC0	; 192
 260:	86 2f       	mov	r24, r22
 262:	81 50       	subi	r24, 0x01	; 1
 264:	8f 70       	andi	r24, 0x0F	; 15
 266:	89 2b       	or	r24, r25
 268:	98 2f       	mov	r25, r24
 26a:	92 95       	swap	r25
 26c:	9f 70       	andi	r25, 0x0F	; 15
 26e:	68 2f       	mov	r22, r24
 270:	6f 70       	andi	r22, 0x0F	; 15
 272:	80 91 0e 01 	lds	r24, 0x010E
 276:	88 23       	and	r24, r24
 278:	11 f0       	breq	.+4      	; 0x27e <LCD_MoveCursor+0x24>
 27a:	90 68       	ori	r25, 0x80	; 128
 27c:	60 68       	ori	r22, 0x80	; 128
 27e:	95 b9       	out	0x05, r25	; 5
 280:	95 b9       	out	0x05, r25	; 5
 282:	89 2f       	mov	r24, r25
 284:	80 64       	ori	r24, 0x40	; 64
 286:	85 b9       	out	0x05, r24	; 5
 288:	85 b9       	out	0x05, r24	; 5
 28a:	95 b9       	out	0x05, r25	; 5
 28c:	95 b9       	out	0x05, r25	; 5
 28e:	65 b9       	out	0x05, r22	; 5
 290:	65 b9       	out	0x05, r22	; 5
 292:	86 2f       	mov	r24, r22
 294:	80 64       	ori	r24, 0x40	; 64
 296:	85 b9       	out	0x05, r24	; 5
 298:	85 b9       	out	0x05, r24	; 5
 29a:	65 b9       	out	0x05, r22	; 5
 29c:	65 b9       	out	0x05, r22	; 5
 29e:	15 b8       	out	0x05, r1	; 5
 2a0:	8a e6       	ldi	r24, 0x6A	; 106
 2a2:	8a 95       	dec	r24
 2a4:	f1 f7       	brne	.-4      	; 0x2a2 <LCD_MoveCursor+0x48>
 2a6:	08 95       	ret
 2a8:	90 e8       	ldi	r25, 0x80	; 128
 2aa:	da cf       	rjmp	.-76     	; 0x260 <LCD_MoveCursor+0x6>

000002ac <LCD_Init>:
 2ac:	40 91 0e 01 	lds	r20, 0x010E
 2b0:	94 2f       	mov	r25, r20
 2b2:	92 60       	ori	r25, 0x02	; 2
 2b4:	95 b9       	out	0x05, r25	; 5
 2b6:	95 b9       	out	0x05, r25	; 5
 2b8:	84 2f       	mov	r24, r20
 2ba:	82 64       	ori	r24, 0x42	; 66
 2bc:	85 b9       	out	0x05, r24	; 5
 2be:	85 b9       	out	0x05, r24	; 5
 2c0:	95 b9       	out	0x05, r25	; 5
 2c2:	95 b9       	out	0x05, r25	; 5
 2c4:	15 b8       	out	0x05, r1	; 5
 2c6:	85 e8       	ldi	r24, 0x85	; 133
 2c8:	8a 95       	dec	r24
 2ca:	f1 f7       	brne	.-4      	; 0x2c8 <LCD_Init+0x1c>
 2cc:	44 23       	and	r20, r20
 2ce:	09 f4       	brne	.+2      	; 0x2d2 <LCD_Init+0x26>
 2d0:	78 c0       	rjmp	.+240    	; 0x3c2 <LCD_Init+0x116>
 2d2:	92 e8       	ldi	r25, 0x82	; 130
 2d4:	28 e8       	ldi	r18, 0x88	; 136
 2d6:	82 ec       	ldi	r24, 0xC2	; 194
 2d8:	38 ec       	ldi	r19, 0xC8	; 200
 2da:	95 b9       	out	0x05, r25	; 5
 2dc:	95 b9       	out	0x05, r25	; 5
 2de:	85 b9       	out	0x05, r24	; 5
 2e0:	85 b9       	out	0x05, r24	; 5
 2e2:	95 b9       	out	0x05, r25	; 5
 2e4:	95 b9       	out	0x05, r25	; 5
 2e6:	25 b9       	out	0x05, r18	; 5
 2e8:	25 b9       	out	0x05, r18	; 5
 2ea:	35 b9       	out	0x05, r19	; 5
 2ec:	35 b9       	out	0x05, r19	; 5
 2ee:	25 b9       	out	0x05, r18	; 5
 2f0:	25 b9       	out	0x05, r18	; 5
 2f2:	15 b8       	out	0x05, r1	; 5
 2f4:	8a e6       	ldi	r24, 0x6A	; 106
 2f6:	8a 95       	dec	r24
 2f8:	f1 f7       	brne	.-4      	; 0x2f6 <LCD_Init+0x4a>
 2fa:	44 23       	and	r20, r20
 2fc:	09 f4       	brne	.+2      	; 0x300 <LCD_Init+0x54>
 2fe:	75 c0       	rjmp	.+234    	; 0x3ea <LCD_Init+0x13e>
 300:	90 e8       	ldi	r25, 0x80	; 128
 302:	26 e8       	ldi	r18, 0x86	; 134
 304:	80 ec       	ldi	r24, 0xC0	; 192
 306:	36 ec       	ldi	r19, 0xC6	; 198
 308:	95 b9       	out	0x05, r25	; 5
 30a:	95 b9       	out	0x05, r25	; 5
 30c:	85 b9       	out	0x05, r24	; 5
 30e:	85 b9       	out	0x05, r24	; 5
 310:	95 b9       	out	0x05, r25	; 5
 312:	95 b9       	out	0x05, r25	; 5
 314:	25 b9       	out	0x05, r18	; 5
 316:	25 b9       	out	0x05, r18	; 5
 318:	35 b9       	out	0x05, r19	; 5
 31a:	35 b9       	out	0x05, r19	; 5
 31c:	25 b9       	out	0x05, r18	; 5
 31e:	25 b9       	out	0x05, r18	; 5
 320:	15 b8       	out	0x05, r1	; 5
 322:	8a e6       	ldi	r24, 0x6A	; 106
 324:	8a 95       	dec	r24
 326:	f1 f7       	brne	.-4      	; 0x324 <LCD_Init+0x78>
 328:	44 23       	and	r20, r20
 32a:	09 f4       	brne	.+2      	; 0x32e <LCD_Init+0x82>
 32c:	59 c0       	rjmp	.+178    	; 0x3e0 <LCD_Init+0x134>
 32e:	90 e8       	ldi	r25, 0x80	; 128
 330:	2c e8       	ldi	r18, 0x8C	; 140
 332:	80 ec       	ldi	r24, 0xC0	; 192
 334:	3c ec       	ldi	r19, 0xCC	; 204
 336:	95 b9       	out	0x05, r25	; 5
 338:	95 b9       	out	0x05, r25	; 5
 33a:	85 b9       	out	0x05, r24	; 5
 33c:	85 b9       	out	0x05, r24	; 5
 33e:	95 b9       	out	0x05, r25	; 5
 340:	95 b9       	out	0x05, r25	; 5
 342:	25 b9       	out	0x05, r18	; 5
 344:	25 b9       	out	0x05, r18	; 5
 346:	35 b9       	out	0x05, r19	; 5
 348:	35 b9       	out	0x05, r19	; 5
 34a:	25 b9       	out	0x05, r18	; 5
 34c:	25 b9       	out	0x05, r18	; 5
 34e:	15 b8       	out	0x05, r1	; 5
 350:	8a e6       	ldi	r24, 0x6A	; 106
 352:	8a 95       	dec	r24
 354:	f1 f7       	brne	.-4      	; 0x352 <LCD_Init+0xa6>
 356:	44 23       	and	r20, r20
 358:	09 f4       	brne	.+2      	; 0x35c <LCD_Init+0xb0>
 35a:	3d c0       	rjmp	.+122    	; 0x3d6 <LCD_Init+0x12a>
 35c:	90 e8       	ldi	r25, 0x80	; 128
 35e:	21 e8       	ldi	r18, 0x81	; 129
 360:	80 ec       	ldi	r24, 0xC0	; 192
 362:	31 ec       	ldi	r19, 0xC1	; 193
 364:	95 b9       	out	0x05, r25	; 5
 366:	95 b9       	out	0x05, r25	; 5
 368:	85 b9       	out	0x05, r24	; 5
 36a:	85 b9       	out	0x05, r24	; 5
 36c:	95 b9       	out	0x05, r25	; 5
 36e:	95 b9       	out	0x05, r25	; 5
 370:	25 b9       	out	0x05, r18	; 5
 372:	25 b9       	out	0x05, r18	; 5
 374:	35 b9       	out	0x05, r19	; 5
 376:	35 b9       	out	0x05, r19	; 5
 378:	25 b9       	out	0x05, r18	; 5
 37a:	25 b9       	out	0x05, r18	; 5
 37c:	15 b8       	out	0x05, r1	; 5
 37e:	8a e6       	ldi	r24, 0x6A	; 106
 380:	8a 95       	dec	r24
 382:	f1 f7       	brne	.-4      	; 0x380 <LCD_Init+0xd4>
 384:	80 ea       	ldi	r24, 0xA0	; 160
 386:	9f e0       	ldi	r25, 0x0F	; 15
 388:	01 97       	sbiw	r24, 0x01	; 1
 38a:	f1 f7       	brne	.-4      	; 0x388 <LCD_Init+0xdc>
 38c:	44 23       	and	r20, r20
 38e:	f1 f0       	breq	.+60     	; 0x3cc <LCD_Init+0x120>
 390:	90 e8       	ldi	r25, 0x80	; 128
 392:	22 e8       	ldi	r18, 0x82	; 130
 394:	80 ec       	ldi	r24, 0xC0	; 192
 396:	32 ec       	ldi	r19, 0xC2	; 194
 398:	95 b9       	out	0x05, r25	; 5
 39a:	95 b9       	out	0x05, r25	; 5
 39c:	85 b9       	out	0x05, r24	; 5
 39e:	85 b9       	out	0x05, r24	; 5
 3a0:	95 b9       	out	0x05, r25	; 5
 3a2:	95 b9       	out	0x05, r25	; 5
 3a4:	25 b9       	out	0x05, r18	; 5
 3a6:	25 b9       	out	0x05, r18	; 5
 3a8:	35 b9       	out	0x05, r19	; 5
 3aa:	35 b9       	out	0x05, r19	; 5
 3ac:	25 b9       	out	0x05, r18	; 5
 3ae:	25 b9       	out	0x05, r18	; 5
 3b0:	15 b8       	out	0x05, r1	; 5
 3b2:	8a e6       	ldi	r24, 0x6A	; 106
 3b4:	8a 95       	dec	r24
 3b6:	f1 f7       	brne	.-4      	; 0x3b4 <LCD_Init+0x108>
 3b8:	80 ea       	ldi	r24, 0xA0	; 160
 3ba:	9f e0       	ldi	r25, 0x0F	; 15
 3bc:	01 97       	sbiw	r24, 0x01	; 1
 3be:	f1 f7       	brne	.-4      	; 0x3bc <LCD_Init+0x110>
 3c0:	08 95       	ret
 3c2:	92 e0       	ldi	r25, 0x02	; 2
 3c4:	28 e0       	ldi	r18, 0x08	; 8
 3c6:	82 e4       	ldi	r24, 0x42	; 66
 3c8:	38 e4       	ldi	r19, 0x48	; 72
 3ca:	87 cf       	rjmp	.-242    	; 0x2da <LCD_Init+0x2e>
 3cc:	90 e0       	ldi	r25, 0x00	; 0
 3ce:	22 e0       	ldi	r18, 0x02	; 2
 3d0:	80 e4       	ldi	r24, 0x40	; 64
 3d2:	32 e4       	ldi	r19, 0x42	; 66
 3d4:	e1 cf       	rjmp	.-62     	; 0x398 <LCD_Init+0xec>
 3d6:	90 e0       	ldi	r25, 0x00	; 0
 3d8:	21 e0       	ldi	r18, 0x01	; 1
 3da:	80 e4       	ldi	r24, 0x40	; 64
 3dc:	31 e4       	ldi	r19, 0x41	; 65
 3de:	c2 cf       	rjmp	.-124    	; 0x364 <LCD_Init+0xb8>
 3e0:	90 e0       	ldi	r25, 0x00	; 0
 3e2:	2c e0       	ldi	r18, 0x0C	; 12
 3e4:	80 e4       	ldi	r24, 0x40	; 64
 3e6:	3c e4       	ldi	r19, 0x4C	; 76
 3e8:	a6 cf       	rjmp	.-180    	; 0x336 <LCD_Init+0x8a>
 3ea:	90 e0       	ldi	r25, 0x00	; 0
 3ec:	26 e0       	ldi	r18, 0x06	; 6
 3ee:	80 e4       	ldi	r24, 0x40	; 64
 3f0:	36 e4       	ldi	r19, 0x46	; 70
 3f2:	8a cf       	rjmp	.-236    	; 0x308 <LCD_Init+0x5c>

000003f4 <DeQueueLCDbuffer>:
 3f4:	5c 9a       	sbi	0x0b, 4	; 11
 3f6:	30 91 0f 01 	lds	r19, 0x010F
 3fa:	33 23       	and	r19, r19
 3fc:	41 f1       	breq	.+80     	; 0x44e <DeQueueLCDbuffer+0x5a>
 3fe:	e0 91 0c 01 	lds	r30, 0x010C
 402:	f0 91 0d 01 	lds	r31, 0x010D
 406:	20 81       	ld	r18, Z
 408:	92 2f       	mov	r25, r18
 40a:	92 95       	swap	r25
 40c:	9f 70       	andi	r25, 0x0F	; 15
 40e:	27 ff       	sbrs	r18, 7
 410:	90 61       	ori	r25, 0x10	; 16
 412:	95 b9       	out	0x05, r25	; 5
 414:	89 2f       	mov	r24, r25
 416:	80 64       	ori	r24, 0x40	; 64
 418:	85 b9       	out	0x05, r24	; 5
 41a:	95 b9       	out	0x05, r25	; 5
 41c:	89 2f       	mov	r24, r25
 41e:	80 7f       	andi	r24, 0xF0	; 240
 420:	2f 70       	andi	r18, 0x0F	; 15
 422:	82 2b       	or	r24, r18
 424:	85 b9       	out	0x05, r24	; 5
 426:	98 2f       	mov	r25, r24
 428:	90 64       	ori	r25, 0x40	; 64
 42a:	95 b9       	out	0x05, r25	; 5
 42c:	85 b9       	out	0x05, r24	; 5
 42e:	15 b8       	out	0x05, r1	; 5
 430:	80 91 0b 01 	lds	r24, 0x010B
 434:	81 50       	subi	r24, 0x01	; 1
 436:	80 93 0b 01 	sts	0x010B, r24
 43a:	88 23       	and	r24, r24
 43c:	51 f0       	breq	.+20     	; 0x452 <DeQueueLCDbuffer+0x5e>
 43e:	31 96       	adiw	r30, 0x01	; 1
 440:	f0 93 0d 01 	sts	0x010D, r31
 444:	e0 93 0c 01 	sts	0x010C, r30
 448:	31 50       	subi	r19, 0x01	; 1
 44a:	30 93 0f 01 	sts	0x010F, r19
 44e:	5c 98       	cbi	0x0b, 4	; 11
 450:	08 95       	ret
 452:	86 e3       	ldi	r24, 0x36	; 54
 454:	91 e0       	ldi	r25, 0x01	; 1
 456:	90 93 0d 01 	sts	0x010D, r25
 45a:	80 93 0c 01 	sts	0x010C, r24
 45e:	80 e2       	ldi	r24, 0x20	; 32
 460:	80 93 0b 01 	sts	0x010B, r24
 464:	f1 cf       	rjmp	.-30     	; 0x448 <DeQueueLCDbuffer+0x54>

00000466 <EnQueueLCDbuffer>:
 466:	98 2f       	mov	r25, r24
 468:	80 91 0f 01 	lds	r24, 0x010F
 46c:	80 32       	cpi	r24, 0x20	; 32
 46e:	b0 f4       	brcc	.+44     	; 0x49c <EnQueueLCDbuffer+0x36>
 470:	e0 91 09 01 	lds	r30, 0x0109
 474:	f0 91 0a 01 	lds	r31, 0x010A
 478:	90 83       	st	Z, r25
 47a:	80 91 08 01 	lds	r24, 0x0108
 47e:	81 50       	subi	r24, 0x01	; 1
 480:	80 93 08 01 	sts	0x0108, r24
 484:	88 23       	and	r24, r24
 486:	59 f0       	breq	.+22     	; 0x49e <EnQueueLCDbuffer+0x38>
 488:	31 96       	adiw	r30, 0x01	; 1
 48a:	f0 93 0a 01 	sts	0x010A, r31
 48e:	e0 93 09 01 	sts	0x0109, r30
 492:	80 91 0f 01 	lds	r24, 0x010F
 496:	8f 5f       	subi	r24, 0xFF	; 255
 498:	80 93 0f 01 	sts	0x010F, r24
 49c:	08 95       	ret
 49e:	86 e3       	ldi	r24, 0x36	; 54
 4a0:	91 e0       	ldi	r25, 0x01	; 1
 4a2:	90 93 0a 01 	sts	0x010A, r25
 4a6:	80 93 09 01 	sts	0x0109, r24
 4aa:	80 e2       	ldi	r24, 0x20	; 32
 4ac:	80 93 08 01 	sts	0x0108, r24
 4b0:	f0 cf       	rjmp	.-32     	; 0x492 <EnQueueLCDbuffer+0x2c>

000004b2 <EnQueueSerialBuffer>:
 4b2:	98 2f       	mov	r25, r24
 4b4:	80 91 10 01 	lds	r24, 0x0110
 4b8:	80 32       	cpi	r24, 0x20	; 32
 4ba:	b0 f4       	brcc	.+44     	; 0x4e8 <EnQueueSerialBuffer+0x36>
 4bc:	e0 91 06 01 	lds	r30, 0x0106
 4c0:	f0 91 07 01 	lds	r31, 0x0107
 4c4:	90 83       	st	Z, r25
 4c6:	80 91 05 01 	lds	r24, 0x0105
 4ca:	81 50       	subi	r24, 0x01	; 1
 4cc:	80 93 05 01 	sts	0x0105, r24
 4d0:	88 23       	and	r24, r24
 4d2:	59 f0       	breq	.+22     	; 0x4ea <EnQueueSerialBuffer+0x38>
 4d4:	31 96       	adiw	r30, 0x01	; 1
 4d6:	f0 93 07 01 	sts	0x0107, r31
 4da:	e0 93 06 01 	sts	0x0106, r30
 4de:	80 91 10 01 	lds	r24, 0x0110
 4e2:	8f 5f       	subi	r24, 0xFF	; 255
 4e4:	80 93 10 01 	sts	0x0110, r24
 4e8:	08 95       	ret
 4ea:	87 e5       	ldi	r24, 0x57	; 87
 4ec:	91 e0       	ldi	r25, 0x01	; 1
 4ee:	90 93 07 01 	sts	0x0107, r25
 4f2:	80 93 06 01 	sts	0x0106, r24
 4f6:	80 e2       	ldi	r24, 0x20	; 32
 4f8:	80 93 05 01 	sts	0x0105, r24
 4fc:	f0 cf       	rjmp	.-32     	; 0x4de <EnQueueSerialBuffer+0x2c>

000004fe <DeQueueSeraialbuffer>:
 4fe:	20 91 10 01 	lds	r18, 0x0110
 502:	22 23       	and	r18, r18
 504:	b1 f0       	breq	.+44     	; 0x532 <DeQueueSeraialbuffer+0x34>
 506:	e0 91 03 01 	lds	r30, 0x0103
 50a:	f0 91 04 01 	lds	r31, 0x0104
 50e:	80 81       	ld	r24, Z
 510:	80 93 c6 00 	sts	0x00C6, r24
 514:	80 91 02 01 	lds	r24, 0x0102
 518:	81 50       	subi	r24, 0x01	; 1
 51a:	80 93 02 01 	sts	0x0102, r24
 51e:	88 23       	and	r24, r24
 520:	49 f0       	breq	.+18     	; 0x534 <DeQueueSeraialbuffer+0x36>
 522:	31 96       	adiw	r30, 0x01	; 1
 524:	f0 93 04 01 	sts	0x0104, r31
 528:	e0 93 03 01 	sts	0x0103, r30
 52c:	21 50       	subi	r18, 0x01	; 1
 52e:	20 93 10 01 	sts	0x0110, r18
 532:	08 95       	ret
 534:	87 e5       	ldi	r24, 0x57	; 87
 536:	91 e0       	ldi	r25, 0x01	; 1
 538:	90 93 04 01 	sts	0x0104, r25
 53c:	80 93 03 01 	sts	0x0103, r24
 540:	80 e2       	ldi	r24, 0x20	; 32
 542:	80 93 02 01 	sts	0x0102, r24
 546:	f2 cf       	rjmp	.-28     	; 0x52c <DeQueueSeraialbuffer+0x2e>

00000548 <main>:
 548:	0f 93       	push	r16
 54a:	1f 93       	push	r17
 54c:	df 93       	push	r29
 54e:	cf 93       	push	r28
 550:	cd b7       	in	r28, 0x3d	; 61
 552:	de b7       	in	r29, 0x3e	; 62
 554:	60 97       	sbiw	r28, 0x10	; 16
 556:	0f b6       	in	r0, 0x3f	; 63
 558:	f8 94       	cli
 55a:	de bf       	out	0x3e, r29	; 62
 55c:	0f be       	out	0x3f, r0	; 63
 55e:	cd bf       	out	0x3d, r28	; 61
 560:	84 b1       	in	r24, 0x04	; 4
 562:	8f ef       	ldi	r24, 0xFF	; 255
 564:	84 b9       	out	0x04, r24	; 4
 566:	97 b1       	in	r25, 0x07	; 7
 568:	87 b9       	out	0x07, r24	; 7
 56a:	8a b1       	in	r24, 0x0a	; 10
 56c:	8c 6f       	ori	r24, 0xFC	; 252
 56e:	8a b9       	out	0x0a, r24	; 10
 570:	0e 94 56 01 	call	0x2ac	; 0x2ac <LCD_Init>
 574:	0e 94 ec 00 	call	0x1d8	; 0x1d8 <LCD_Clear>
 578:	40 91 01 01 	lds	r20, 0x0101
 57c:	8e 01       	movw	r16, r28
 57e:	0f 5f       	subi	r16, 0xFF	; 255
 580:	1f 4f       	sbci	r17, 0xFF	; 255
 582:	c8 01       	movw	r24, r16
 584:	60 e0       	ldi	r22, 0x00	; 0
 586:	71 e0       	ldi	r23, 0x01	; 1
 588:	50 e0       	ldi	r21, 0x00	; 0
 58a:	0e 94 6b 05 	call	0xad6	; 0xad6 <PrintByte>
 58e:	82 e0       	ldi	r24, 0x02	; 2
 590:	61 e0       	ldi	r22, 0x01	; 1
 592:	0e 94 2d 01 	call	0x25a	; 0x25a <LCD_MoveCursor>
 596:	c8 01       	movw	r24, r16
 598:	0e 94 a2 00 	call	0x144	; 0x144 <LCD_WriteString>
 59c:	80 e2       	ldi	r24, 0x20	; 32
 59e:	80 93 7c 00 	sts	0x007C, r24
 5a2:	86 e8       	ldi	r24, 0x86	; 134
 5a4:	80 93 7a 00 	sts	0x007A, r24
 5a8:	17 bc       	out	0x27, r1	; 39
 5aa:	83 e8       	ldi	r24, 0x83	; 131
 5ac:	84 bd       	out	0x24, r24	; 36
 5ae:	81 e0       	ldi	r24, 0x01	; 1
 5b0:	85 bd       	out	0x25, r24	; 37
 5b2:	10 92 6e 00 	sts	0x006E, r1
 5b6:	80 e1       	ldi	r24, 0x10	; 16
 5b8:	97 e2       	ldi	r25, 0x27	; 39
 5ba:	90 93 89 00 	sts	0x0089, r25
 5be:	80 93 88 00 	sts	0x0088, r24
 5c2:	10 92 80 00 	sts	0x0080, r1
 5c6:	8a e0       	ldi	r24, 0x0A	; 10
 5c8:	80 93 81 00 	sts	0x0081, r24
 5cc:	82 e0       	ldi	r24, 0x02	; 2
 5ce:	80 93 6f 00 	sts	0x006F, r24
 5d2:	16 bc       	out	0x26, r1	; 38
 5d4:	10 92 85 00 	sts	0x0085, r1
 5d8:	10 92 84 00 	sts	0x0084, r1
 5dc:	80 93 b0 00 	sts	0x00B0, r24
 5e0:	80 93 b1 00 	sts	0x00B1, r24
 5e4:	83 e3       	ldi	r24, 0x33	; 51
 5e6:	90 e0       	ldi	r25, 0x00	; 0
 5e8:	90 93 c5 00 	sts	0x00C5, r25
 5ec:	80 93 c4 00 	sts	0x00C4, r24
 5f0:	10 92 c0 00 	sts	0x00C0, r1
 5f4:	88 e9       	ldi	r24, 0x98	; 152
 5f6:	80 93 c1 00 	sts	0x00C1, r24
 5fa:	86 e0       	ldi	r24, 0x06	; 6
 5fc:	80 93 c2 00 	sts	0x00C2, r24
 600:	78 94       	sei
 602:	ff cf       	rjmp	.-2      	; 0x602 <main+0xba>

00000604 <__vector_19>:
 604:	1f 92       	push	r1
 606:	0f 92       	push	r0
 608:	0f b6       	in	r0, 0x3f	; 63
 60a:	0f 92       	push	r0
 60c:	11 24       	eor	r1, r1
 60e:	2f 93       	push	r18
 610:	8f 93       	push	r24
 612:	9f 93       	push	r25
 614:	ef 93       	push	r30
 616:	ff 93       	push	r31
 618:	5d 9a       	sbi	0x0b, 5	; 11
 61a:	20 91 10 01 	lds	r18, 0x0110
 61e:	22 23       	and	r18, r18
 620:	b1 f0       	breq	.+44     	; 0x64e <__vector_19+0x4a>
 622:	e0 91 03 01 	lds	r30, 0x0103
 626:	f0 91 04 01 	lds	r31, 0x0104
 62a:	80 81       	ld	r24, Z
 62c:	80 93 c6 00 	sts	0x00C6, r24
 630:	80 91 02 01 	lds	r24, 0x0102
 634:	81 50       	subi	r24, 0x01	; 1
 636:	80 93 02 01 	sts	0x0102, r24
 63a:	88 23       	and	r24, r24
 63c:	99 f0       	breq	.+38     	; 0x664 <__vector_19+0x60>
 63e:	31 96       	adiw	r30, 0x01	; 1
 640:	f0 93 04 01 	sts	0x0104, r31
 644:	e0 93 03 01 	sts	0x0103, r30
 648:	21 50       	subi	r18, 0x01	; 1
 64a:	20 93 10 01 	sts	0x0110, r18
 64e:	5d 98       	cbi	0x0b, 5	; 11
 650:	ff 91       	pop	r31
 652:	ef 91       	pop	r30
 654:	9f 91       	pop	r25
 656:	8f 91       	pop	r24
 658:	2f 91       	pop	r18
 65a:	0f 90       	pop	r0
 65c:	0f be       	out	0x3f, r0	; 63
 65e:	0f 90       	pop	r0
 660:	1f 90       	pop	r1
 662:	18 95       	reti
 664:	87 e5       	ldi	r24, 0x57	; 87
 666:	91 e0       	ldi	r25, 0x01	; 1
 668:	90 93 04 01 	sts	0x0104, r25
 66c:	80 93 03 01 	sts	0x0103, r24
 670:	80 e2       	ldi	r24, 0x20	; 32
 672:	80 93 02 01 	sts	0x0102, r24
 676:	e8 cf       	rjmp	.-48     	; 0x648 <__vector_19+0x44>

00000678 <__vector_18>:
 678:	1f 92       	push	r1
 67a:	0f 92       	push	r0
 67c:	0f b6       	in	r0, 0x3f	; 63
 67e:	0f 92       	push	r0
 680:	11 24       	eor	r1, r1
 682:	2f 93       	push	r18
 684:	3f 93       	push	r19
 686:	4f 93       	push	r20
 688:	5f 93       	push	r21
 68a:	6f 93       	push	r22
 68c:	7f 93       	push	r23
 68e:	8f 93       	push	r24
 690:	9f 93       	push	r25
 692:	af 93       	push	r26
 694:	bf 93       	push	r27
 696:	cf 93       	push	r28
 698:	df 93       	push	r29
 69a:	ef 93       	push	r30
 69c:	ff 93       	push	r31
 69e:	80 91 c6 00 	lds	r24, 0x00C6
 6a2:	80 93 11 01 	sts	0x0111, r24
 6a6:	99 27       	eor	r25, r25
 6a8:	87 fd       	sbrc	r24, 7
 6aa:	90 95       	com	r25
 6ac:	8f 7d       	andi	r24, 0xDF	; 223
 6ae:	90 70       	andi	r25, 0x00	; 0
 6b0:	84 34       	cpi	r24, 0x44	; 68
 6b2:	91 05       	cpc	r25, r1
 6b4:	09 f4       	brne	.+2      	; 0x6b8 <__vector_18+0x40>
 6b6:	cc c0       	rjmp	.+408    	; 0x850 <__vector_18+0x1d8>
 6b8:	85 35       	cpi	r24, 0x55	; 85
 6ba:	91 05       	cpc	r25, r1
 6bc:	09 f4       	brne	.+2      	; 0x6c0 <__vector_18+0x48>
 6be:	4c c0       	rjmp	.+152    	; 0x758 <__vector_18+0xe0>
 6c0:	c2 e1       	ldi	r28, 0x12	; 18
 6c2:	d1 e0       	ldi	r29, 0x01	; 1
 6c4:	88 e7       	ldi	r24, 0x78	; 120
 6c6:	80 93 c1 00 	sts	0x00C1, r24
 6ca:	90 91 10 01 	lds	r25, 0x0110
 6ce:	90 32       	cpi	r25, 0x20	; 32
 6d0:	e0 f4       	brcc	.+56     	; 0x70a <__vector_18+0x92>
 6d2:	e0 91 06 01 	lds	r30, 0x0106
 6d6:	f0 91 07 01 	lds	r31, 0x0107
 6da:	8d e0       	ldi	r24, 0x0D	; 13
 6dc:	80 83       	st	Z, r24
 6de:	80 91 05 01 	lds	r24, 0x0105
 6e2:	81 50       	subi	r24, 0x01	; 1
 6e4:	80 93 05 01 	sts	0x0105, r24
 6e8:	88 23       	and	r24, r24
 6ea:	09 f0       	breq	.+2      	; 0x6ee <__vector_18+0x76>
 6ec:	bc c0       	rjmp	.+376    	; 0x866 <__vector_18+0x1ee>
 6ee:	87 e5       	ldi	r24, 0x57	; 87
 6f0:	91 e0       	ldi	r25, 0x01	; 1
 6f2:	90 93 07 01 	sts	0x0107, r25
 6f6:	80 93 06 01 	sts	0x0106, r24
 6fa:	80 e2       	ldi	r24, 0x20	; 32
 6fc:	80 93 05 01 	sts	0x0105, r24
 700:	90 91 10 01 	lds	r25, 0x0110
 704:	9f 5f       	subi	r25, 0xFF	; 255
 706:	90 93 10 01 	sts	0x0110, r25
 70a:	d0 93 23 01 	sts	0x0123, r29
 70e:	c0 93 22 01 	sts	0x0122, r28
 712:	80 91 12 01 	lds	r24, 0x0112
 716:	88 23       	and	r24, r24
 718:	09 f4       	brne	.+2      	; 0x71c <__vector_18+0xa4>
 71a:	78 c0       	rjmp	.+240    	; 0x80c <__vector_18+0x194>
 71c:	20 91 05 01 	lds	r18, 0x0105
 720:	a0 91 06 01 	lds	r26, 0x0106
 724:	b0 91 07 01 	lds	r27, 0x0107
 728:	fe 01       	movw	r30, r28
 72a:	31 96       	adiw	r30, 0x01	; 1
 72c:	0e c0       	rjmp	.+28     	; 0x74a <__vector_18+0xd2>
 72e:	20 e2       	ldi	r18, 0x20	; 32
 730:	a7 e5       	ldi	r26, 0x57	; 87
 732:	b1 e0       	ldi	r27, 0x01	; 1
 734:	90 91 10 01 	lds	r25, 0x0110
 738:	9f 5f       	subi	r25, 0xFF	; 255
 73a:	90 93 10 01 	sts	0x0110, r25
 73e:	3e 2f       	mov	r19, r30
 740:	4f 2f       	mov	r20, r31
 742:	81 91       	ld	r24, Z+
 744:	88 23       	and	r24, r24
 746:	09 f4       	brne	.+2      	; 0x74a <__vector_18+0xd2>
 748:	57 c0       	rjmp	.+174    	; 0x7f8 <__vector_18+0x180>
 74a:	90 32       	cpi	r25, 0x20	; 32
 74c:	c0 f7       	brcc	.-16     	; 0x73e <__vector_18+0xc6>
 74e:	8c 93       	st	X, r24
 750:	21 50       	subi	r18, 0x01	; 1
 752:	69 f3       	breq	.-38     	; 0x72e <__vector_18+0xb6>
 754:	11 96       	adiw	r26, 0x01	; 1
 756:	ee cf       	rjmp	.-36     	; 0x734 <__vector_18+0xbc>
 758:	40 91 01 01 	lds	r20, 0x0101
 75c:	4b 30       	cpi	r20, 0x0B	; 11
 75e:	08 f4       	brcc	.+2      	; 0x762 <__vector_18+0xea>
 760:	92 c0       	rjmp	.+292    	; 0x886 <__vector_18+0x20e>
 762:	81 e0       	ldi	r24, 0x01	; 1
 764:	80 93 56 01 	sts	0x0156, r24
 768:	c2 e1       	ldi	r28, 0x12	; 18
 76a:	d1 e0       	ldi	r29, 0x01	; 1
 76c:	ce 01       	movw	r24, r28
 76e:	60 e0       	ldi	r22, 0x00	; 0
 770:	71 e0       	ldi	r23, 0x01	; 1
 772:	50 e0       	ldi	r21, 0x00	; 0
 774:	0e 94 6b 05 	call	0xad6	; 0xad6 <PrintByte>
 778:	80 91 0f 01 	lds	r24, 0x010F
 77c:	80 32       	cpi	r24, 0x20	; 32
 77e:	c0 f4       	brcc	.+48     	; 0x7b0 <__vector_18+0x138>
 780:	e0 91 09 01 	lds	r30, 0x0109
 784:	f0 91 0a 01 	lds	r31, 0x010A
 788:	80 ec       	ldi	r24, 0xC0	; 192
 78a:	80 83       	st	Z, r24
 78c:	80 91 08 01 	lds	r24, 0x0108
 790:	81 50       	subi	r24, 0x01	; 1
 792:	80 93 08 01 	sts	0x0108, r24
 796:	88 23       	and	r24, r24
 798:	09 f4       	brne	.+2      	; 0x79c <__vector_18+0x124>
 79a:	6b c0       	rjmp	.+214    	; 0x872 <__vector_18+0x1fa>
 79c:	31 96       	adiw	r30, 0x01	; 1
 79e:	f0 93 0a 01 	sts	0x010A, r31
 7a2:	e0 93 09 01 	sts	0x0109, r30
 7a6:	80 91 0f 01 	lds	r24, 0x010F
 7aa:	8f 5f       	subi	r24, 0xFF	; 255
 7ac:	80 93 0f 01 	sts	0x010F, r24
 7b0:	d0 93 23 01 	sts	0x0123, r29
 7b4:	c0 93 22 01 	sts	0x0122, r28
 7b8:	90 91 12 01 	lds	r25, 0x0112
 7bc:	99 23       	and	r25, r25
 7be:	09 f4       	brne	.+2      	; 0x7c2 <__vector_18+0x14a>
 7c0:	41 c0       	rjmp	.+130    	; 0x844 <__vector_18+0x1cc>
 7c2:	20 91 08 01 	lds	r18, 0x0108
 7c6:	e0 91 09 01 	lds	r30, 0x0109
 7ca:	f0 91 0a 01 	lds	r31, 0x010A
 7ce:	de 01       	movw	r26, r28
 7d0:	11 96       	adiw	r26, 0x01	; 1
 7d2:	0b c0       	rjmp	.+22     	; 0x7ea <__vector_18+0x172>
 7d4:	20 e2       	ldi	r18, 0x20	; 32
 7d6:	e6 e3       	ldi	r30, 0x36	; 54
 7d8:	f1 e0       	ldi	r31, 0x01	; 1
 7da:	80 91 0f 01 	lds	r24, 0x010F
 7de:	8f 5f       	subi	r24, 0xFF	; 255
 7e0:	80 93 0f 01 	sts	0x010F, r24
 7e4:	9d 91       	ld	r25, X+
 7e6:	99 23       	and	r25, r25
 7e8:	39 f1       	breq	.+78     	; 0x838 <__vector_18+0x1c0>
 7ea:	80 32       	cpi	r24, 0x20	; 32
 7ec:	d8 f7       	brcc	.-10     	; 0x7e4 <__vector_18+0x16c>
 7ee:	90 83       	st	Z, r25
 7f0:	21 50       	subi	r18, 0x01	; 1
 7f2:	81 f3       	breq	.-32     	; 0x7d4 <__vector_18+0x15c>
 7f4:	31 96       	adiw	r30, 0x01	; 1
 7f6:	f1 cf       	rjmp	.-30     	; 0x7da <__vector_18+0x162>
 7f8:	20 93 05 01 	sts	0x0105, r18
 7fc:	b0 93 07 01 	sts	0x0107, r27
 800:	a0 93 06 01 	sts	0x0106, r26
 804:	30 93 22 01 	sts	0x0122, r19
 808:	40 93 23 01 	sts	0x0123, r20
 80c:	88 e9       	ldi	r24, 0x98	; 152
 80e:	80 93 c1 00 	sts	0x00C1, r24
 812:	ff 91       	pop	r31
 814:	ef 91       	pop	r30
 816:	df 91       	pop	r29
 818:	cf 91       	pop	r28
 81a:	bf 91       	pop	r27
 81c:	af 91       	pop	r26
 81e:	9f 91       	pop	r25
 820:	8f 91       	pop	r24
 822:	7f 91       	pop	r23
 824:	6f 91       	pop	r22
 826:	5f 91       	pop	r21
 828:	4f 91       	pop	r20
 82a:	3f 91       	pop	r19
 82c:	2f 91       	pop	r18
 82e:	0f 90       	pop	r0
 830:	0f be       	out	0x3f, r0	; 63
 832:	0f 90       	pop	r0
 834:	1f 90       	pop	r1
 836:	18 95       	reti
 838:	20 93 08 01 	sts	0x0108, r18
 83c:	f0 93 0a 01 	sts	0x010A, r31
 840:	e0 93 09 01 	sts	0x0109, r30
 844:	10 92 56 01 	sts	0x0156, r1
 848:	82 e0       	ldi	r24, 0x02	; 2
 84a:	80 93 70 00 	sts	0x0070, r24
 84e:	3a cf       	rjmp	.-396    	; 0x6c4 <__vector_18+0x4c>
 850:	40 91 01 01 	lds	r20, 0x0101
 854:	42 30       	cpi	r20, 0x02	; 2
 856:	08 f4       	brcc	.+2      	; 0x85a <__vector_18+0x1e2>
 858:	84 cf       	rjmp	.-248    	; 0x762 <__vector_18+0xea>
 85a:	84 2f       	mov	r24, r20
 85c:	81 50       	subi	r24, 0x01	; 1
 85e:	80 93 01 01 	sts	0x0101, r24
 862:	48 2f       	mov	r20, r24
 864:	7e cf       	rjmp	.-260    	; 0x762 <__vector_18+0xea>
 866:	31 96       	adiw	r30, 0x01	; 1
 868:	f0 93 07 01 	sts	0x0107, r31
 86c:	e0 93 06 01 	sts	0x0106, r30
 870:	47 cf       	rjmp	.-370    	; 0x700 <__vector_18+0x88>
 872:	86 e3       	ldi	r24, 0x36	; 54
 874:	91 e0       	ldi	r25, 0x01	; 1
 876:	90 93 0a 01 	sts	0x010A, r25
 87a:	80 93 09 01 	sts	0x0109, r24
 87e:	80 e2       	ldi	r24, 0x20	; 32
 880:	80 93 08 01 	sts	0x0108, r24
 884:	90 cf       	rjmp	.-224    	; 0x7a6 <__vector_18+0x12e>
 886:	84 2f       	mov	r24, r20
 888:	8f 5f       	subi	r24, 0xFF	; 255
 88a:	80 93 01 01 	sts	0x0101, r24
 88e:	48 2f       	mov	r20, r24
 890:	68 cf       	rjmp	.-304    	; 0x762 <__vector_18+0xea>

00000892 <__vector_11>:
 892:	1f 92       	push	r1
 894:	0f 92       	push	r0
 896:	0f b6       	in	r0, 0x3f	; 63
 898:	0f 92       	push	r0
 89a:	11 24       	eor	r1, r1
 89c:	2f 93       	push	r18
 89e:	3f 93       	push	r19
 8a0:	4f 93       	push	r20
 8a2:	5f 93       	push	r21
 8a4:	6f 93       	push	r22
 8a6:	7f 93       	push	r23
 8a8:	8f 93       	push	r24
 8aa:	9f 93       	push	r25
 8ac:	af 93       	push	r26
 8ae:	bf 93       	push	r27
 8b0:	cf 93       	push	r28
 8b2:	df 93       	push	r29
 8b4:	ef 93       	push	r30
 8b6:	ff 93       	push	r31
 8b8:	80 91 7a 00 	lds	r24, 0x007A
 8bc:	80 64       	ori	r24, 0x40	; 64
 8be:	80 93 7a 00 	sts	0x007A, r24
 8c2:	80 91 7a 00 	lds	r24, 0x007A
 8c6:	86 fd       	sbrc	r24, 6
 8c8:	fc cf       	rjmp	.-8      	; 0x8c2 <__vector_11+0x30>
 8ca:	80 91 56 01 	lds	r24, 0x0156
 8ce:	88 23       	and	r24, r24
 8d0:	09 f4       	brne	.+2      	; 0x8d4 <__vector_11+0x42>
 8d2:	40 c0       	rjmp	.+128    	; 0x954 <__stack+0x55>
 8d4:	20 91 01 01 	lds	r18, 0x0101
 8d8:	42 2f       	mov	r20, r18
 8da:	50 e0       	ldi	r21, 0x00	; 0
 8dc:	20 ff       	sbrs	r18, 0
 8de:	20 c0       	rjmp	.+64     	; 0x920 <__stack+0x21>
 8e0:	80 91 79 00 	lds	r24, 0x0079
 8e4:	90 e0       	ldi	r25, 0x00	; 0
 8e6:	41 50       	subi	r20, 0x01	; 1
 8e8:	50 40       	sbci	r21, 0x00	; 0
 8ea:	55 95       	asr	r21
 8ec:	47 95       	ror	r20
 8ee:	02 c0       	rjmp	.+4      	; 0x8f4 <__vector_11+0x62>
 8f0:	95 95       	asr	r25
 8f2:	87 95       	ror	r24
 8f4:	4a 95       	dec	r20
 8f6:	e2 f7       	brpl	.-8      	; 0x8f0 <__vector_11+0x5e>
 8f8:	87 bd       	out	0x27, r24	; 39
 8fa:	ff 91       	pop	r31
 8fc:	ef 91       	pop	r30
 8fe:	df 91       	pop	r29
 900:	cf 91       	pop	r28
 902:	bf 91       	pop	r27
 904:	af 91       	pop	r26
 906:	9f 91       	pop	r25
 908:	8f 91       	pop	r24
 90a:	7f 91       	pop	r23
 90c:	6f 91       	pop	r22
 90e:	5f 91       	pop	r21
 910:	4f 91       	pop	r20
 912:	3f 91       	pop	r19
 914:	2f 91       	pop	r18
 916:	0f 90       	pop	r0
 918:	0f be       	out	0x3f, r0	; 63
 91a:	0f 90       	pop	r0
 91c:	1f 90       	pop	r1
 91e:	18 95       	reti
 920:	40 91 79 00 	lds	r20, 0x0079
 924:	26 95       	lsr	r18
 926:	30 e0       	ldi	r19, 0x00	; 0
 928:	80 91 79 00 	lds	r24, 0x0079
 92c:	90 e0       	ldi	r25, 0x00	; 0
 92e:	2f 5f       	subi	r18, 0xFF	; 255
 930:	3f 4f       	sbci	r19, 0xFF	; 255
 932:	02 2e       	mov	r0, r18
 934:	02 c0       	rjmp	.+4      	; 0x93a <__stack+0x3b>
 936:	95 95       	asr	r25
 938:	87 95       	ror	r24
 93a:	0a 94       	dec	r0
 93c:	e2 f7       	brpl	.-8      	; 0x936 <__stack+0x37>
 93e:	21 50       	subi	r18, 0x01	; 1
 940:	30 40       	sbci	r19, 0x00	; 0
 942:	50 e0       	ldi	r21, 0x00	; 0
 944:	02 c0       	rjmp	.+4      	; 0x94a <__stack+0x4b>
 946:	55 95       	asr	r21
 948:	47 95       	ror	r20
 94a:	2a 95       	dec	r18
 94c:	e2 f7       	brpl	.-8      	; 0x946 <__stack+0x47>
 94e:	84 0f       	add	r24, r20
 950:	87 bd       	out	0x27, r24	; 39
 952:	d3 cf       	rjmp	.-90     	; 0x8fa <__vector_11+0x68>
 954:	40 91 79 00 	lds	r20, 0x0079
 958:	c6 e2       	ldi	r28, 0x26	; 38
 95a:	d1 e0       	ldi	r29, 0x01	; 1
 95c:	ce 01       	movw	r24, r28
 95e:	60 e0       	ldi	r22, 0x00	; 0
 960:	71 e0       	ldi	r23, 0x01	; 1
 962:	50 e0       	ldi	r21, 0x00	; 0
 964:	0e 94 6b 05 	call	0xad6	; 0xad6 <PrintByte>
 968:	90 91 0f 01 	lds	r25, 0x010F
 96c:	90 32       	cpi	r25, 0x20	; 32
 96e:	e0 f4       	brcc	.+56     	; 0x9a8 <__stack+0xa9>
 970:	e0 91 09 01 	lds	r30, 0x0109
 974:	f0 91 0a 01 	lds	r31, 0x010A
 978:	80 e8       	ldi	r24, 0x80	; 128
 97a:	80 83       	st	Z, r24
 97c:	80 91 08 01 	lds	r24, 0x0108
 980:	81 50       	subi	r24, 0x01	; 1
 982:	80 93 08 01 	sts	0x0108, r24
 986:	88 23       	and	r24, r24
 988:	09 f0       	breq	.+2      	; 0x98c <__stack+0x8d>
 98a:	41 c0       	rjmp	.+130    	; 0xa0e <__stack+0x10f>
 98c:	86 e3       	ldi	r24, 0x36	; 54
 98e:	91 e0       	ldi	r25, 0x01	; 1
 990:	90 93 0a 01 	sts	0x010A, r25
 994:	80 93 09 01 	sts	0x0109, r24
 998:	80 e2       	ldi	r24, 0x20	; 32
 99a:	80 93 08 01 	sts	0x0108, r24
 99e:	90 91 0f 01 	lds	r25, 0x010F
 9a2:	9f 5f       	subi	r25, 0xFF	; 255
 9a4:	90 93 0f 01 	sts	0x010F, r25
 9a8:	d0 93 25 01 	sts	0x0125, r29
 9ac:	c0 93 24 01 	sts	0x0124, r28
 9b0:	80 91 26 01 	lds	r24, 0x0126
 9b4:	88 23       	and	r24, r24
 9b6:	39 f1       	breq	.+78     	; 0xa06 <__stack+0x107>
 9b8:	20 91 08 01 	lds	r18, 0x0108
 9bc:	a0 91 09 01 	lds	r26, 0x0109
 9c0:	b0 91 0a 01 	lds	r27, 0x010A
 9c4:	fe 01       	movw	r30, r28
 9c6:	31 96       	adiw	r30, 0x01	; 1
 9c8:	0d c0       	rjmp	.+26     	; 0x9e4 <__stack+0xe5>
 9ca:	20 e2       	ldi	r18, 0x20	; 32
 9cc:	a6 e3       	ldi	r26, 0x36	; 54
 9ce:	b1 e0       	ldi	r27, 0x01	; 1
 9d0:	90 91 0f 01 	lds	r25, 0x010F
 9d4:	9f 5f       	subi	r25, 0xFF	; 255
 9d6:	90 93 0f 01 	sts	0x010F, r25
 9da:	3e 2f       	mov	r19, r30
 9dc:	4f 2f       	mov	r20, r31
 9de:	81 91       	ld	r24, Z+
 9e0:	88 23       	and	r24, r24
 9e2:	39 f0       	breq	.+14     	; 0x9f2 <__stack+0xf3>
 9e4:	90 32       	cpi	r25, 0x20	; 32
 9e6:	c8 f7       	brcc	.-14     	; 0x9da <__stack+0xdb>
 9e8:	8c 93       	st	X, r24
 9ea:	21 50       	subi	r18, 0x01	; 1
 9ec:	71 f3       	breq	.-36     	; 0x9ca <__stack+0xcb>
 9ee:	11 96       	adiw	r26, 0x01	; 1
 9f0:	ef cf       	rjmp	.-34     	; 0x9d0 <__stack+0xd1>
 9f2:	20 93 08 01 	sts	0x0108, r18
 9f6:	b0 93 0a 01 	sts	0x010A, r27
 9fa:	a0 93 09 01 	sts	0x0109, r26
 9fe:	30 93 24 01 	sts	0x0124, r19
 a02:	40 93 25 01 	sts	0x0125, r20
 a06:	82 e0       	ldi	r24, 0x02	; 2
 a08:	80 93 70 00 	sts	0x0070, r24
 a0c:	63 cf       	rjmp	.-314    	; 0x8d4 <__vector_11+0x42>
 a0e:	31 96       	adiw	r30, 0x01	; 1
 a10:	f0 93 0a 01 	sts	0x010A, r31
 a14:	e0 93 09 01 	sts	0x0109, r30
 a18:	c2 cf       	rjmp	.-124    	; 0x99e <__stack+0x9f>

00000a1a <__vector_7>:
 a1a:	1f 92       	push	r1
 a1c:	0f 92       	push	r0
 a1e:	0f b6       	in	r0, 0x3f	; 63
 a20:	0f 92       	push	r0
 a22:	11 24       	eor	r1, r1
 a24:	2f 93       	push	r18
 a26:	3f 93       	push	r19
 a28:	8f 93       	push	r24
 a2a:	9f 93       	push	r25
 a2c:	ef 93       	push	r30
 a2e:	ff 93       	push	r31
 a30:	80 91 56 01 	lds	r24, 0x0156
 a34:	88 23       	and	r24, r24
 a36:	59 f0       	breq	.+22     	; 0xa4e <__vector_7+0x34>
 a38:	ff 91       	pop	r31
 a3a:	ef 91       	pop	r30
 a3c:	9f 91       	pop	r25
 a3e:	8f 91       	pop	r24
 a40:	3f 91       	pop	r19
 a42:	2f 91       	pop	r18
 a44:	0f 90       	pop	r0
 a46:	0f be       	out	0x3f, r0	; 63
 a48:	0f 90       	pop	r0
 a4a:	1f 90       	pop	r1
 a4c:	18 95       	reti
 a4e:	5c 9a       	sbi	0x0b, 4	; 11
 a50:	30 91 0f 01 	lds	r19, 0x010F
 a54:	33 23       	and	r19, r19
 a56:	a9 f1       	breq	.+106    	; 0xac2 <__vector_7+0xa8>
 a58:	e0 91 0c 01 	lds	r30, 0x010C
 a5c:	f0 91 0d 01 	lds	r31, 0x010D
 a60:	20 81       	ld	r18, Z
 a62:	92 2f       	mov	r25, r18
 a64:	92 95       	swap	r25
 a66:	9f 70       	andi	r25, 0x0F	; 15
 a68:	27 ff       	sbrs	r18, 7
 a6a:	90 61       	ori	r25, 0x10	; 16
 a6c:	95 b9       	out	0x05, r25	; 5
 a6e:	89 2f       	mov	r24, r25
 a70:	80 64       	ori	r24, 0x40	; 64
 a72:	85 b9       	out	0x05, r24	; 5
 a74:	95 b9       	out	0x05, r25	; 5
 a76:	89 2f       	mov	r24, r25
 a78:	80 7f       	andi	r24, 0xF0	; 240
 a7a:	2f 70       	andi	r18, 0x0F	; 15
 a7c:	82 2b       	or	r24, r18
 a7e:	85 b9       	out	0x05, r24	; 5
 a80:	98 2f       	mov	r25, r24
 a82:	90 64       	ori	r25, 0x40	; 64
 a84:	95 b9       	out	0x05, r25	; 5
 a86:	85 b9       	out	0x05, r24	; 5
 a88:	15 b8       	out	0x05, r1	; 5
 a8a:	80 91 0b 01 	lds	r24, 0x010B
 a8e:	81 50       	subi	r24, 0x01	; 1
 a90:	80 93 0b 01 	sts	0x010B, r24
 a94:	88 23       	and	r24, r24
 a96:	c9 f4       	brne	.+50     	; 0xaca <__vector_7+0xb0>
 a98:	86 e3       	ldi	r24, 0x36	; 54
 a9a:	91 e0       	ldi	r25, 0x01	; 1
 a9c:	90 93 0d 01 	sts	0x010D, r25
 aa0:	80 93 0c 01 	sts	0x010C, r24
 aa4:	80 e2       	ldi	r24, 0x20	; 32
 aa6:	80 93 0b 01 	sts	0x010B, r24
 aaa:	83 2f       	mov	r24, r19
 aac:	81 50       	subi	r24, 0x01	; 1
 aae:	80 93 0f 01 	sts	0x010F, r24
 ab2:	5c 98       	cbi	0x0b, 4	; 11
 ab4:	88 23       	and	r24, r24
 ab6:	31 f0       	breq	.+12     	; 0xac4 <__vector_7+0xaa>
 ab8:	10 92 b2 00 	sts	0x00B2, r1
 abc:	82 e0       	ldi	r24, 0x02	; 2
 abe:	87 bb       	out	0x17, r24	; 23
 ac0:	bb cf       	rjmp	.-138    	; 0xa38 <__vector_7+0x1e>
 ac2:	5c 98       	cbi	0x0b, 4	; 11
 ac4:	10 92 70 00 	sts	0x0070, r1
 ac8:	b7 cf       	rjmp	.-146    	; 0xa38 <__vector_7+0x1e>
 aca:	31 96       	adiw	r30, 0x01	; 1
 acc:	f0 93 0d 01 	sts	0x010D, r31
 ad0:	e0 93 0c 01 	sts	0x010C, r30
 ad4:	ea cf       	rjmp	.-44     	; 0xaaa <__vector_7+0x90>

00000ad6 <PrintByte>:
 ad6:	fb 01       	movw	r30, r22
 ad8:	50 81       	ld	r21, Z
 ada:	55 23       	and	r21, r21
 adc:	09 f4       	brne	.+2      	; 0xae0 <PrintByte+0xa>
 ade:	49 c0       	rjmp	.+146    	; 0xb72 <PrintByte+0x9c>
 ae0:	dc 01       	movw	r26, r24
 ae2:	5d 93       	st	X+, r21
 ae4:	31 96       	adiw	r30, 0x01	; 1
 ae6:	50 81       	ld	r21, Z
 ae8:	55 23       	and	r21, r21
 aea:	d9 f7       	brne	.-10     	; 0xae2 <PrintByte+0xc>
 aec:	44 36       	cpi	r20, 0x64	; 100
 aee:	78 f4       	brcc	.+30     	; 0xb0e <PrintByte+0x38>
 af0:	80 e2       	ldi	r24, 0x20	; 32
 af2:	8c 93       	st	X, r24
 af4:	20 e0       	ldi	r18, 0x00	; 0
 af6:	fd 01       	movw	r30, r26
 af8:	31 96       	adiw	r30, 0x01	; 1
 afa:	4a 30       	cpi	r20, 0x0A	; 10
 afc:	d0 f4       	brcc	.+52     	; 0xb32 <PrintByte+0x5c>
 afe:	22 23       	and	r18, r18
 b00:	91 f5       	brne	.+100    	; 0xb66 <PrintByte+0x90>
 b02:	80 e2       	ldi	r24, 0x20	; 32
 b04:	80 83       	st	Z, r24
 b06:	40 5d       	subi	r20, 0xD0	; 208
 b08:	41 83       	std	Z+1, r20	; 0x01
 b0a:	12 82       	std	Z+2, r1	; 0x02
 b0c:	08 95       	ret
 b0e:	84 2f       	mov	r24, r20
 b10:	64 e6       	ldi	r22, 0x64	; 100
 b12:	0e 94 bb 05 	call	0xb76	; 0xb76 <__udivmodqi4>
 b16:	28 2f       	mov	r18, r24
 b18:	20 5d       	subi	r18, 0xD0	; 208
 b1a:	2c 93       	st	X, r18
 b1c:	20 53       	subi	r18, 0x30	; 48
 b1e:	8c e9       	ldi	r24, 0x9C	; 156
 b20:	9f ef       	ldi	r25, 0xFF	; 255
 b22:	28 9f       	mul	r18, r24
 b24:	80 2d       	mov	r24, r0
 b26:	11 24       	eor	r1, r1
 b28:	48 0f       	add	r20, r24
 b2a:	fd 01       	movw	r30, r26
 b2c:	31 96       	adiw	r30, 0x01	; 1
 b2e:	4a 30       	cpi	r20, 0x0A	; 10
 b30:	30 f3       	brcs	.-52     	; 0xafe <PrintByte+0x28>
 b32:	84 2f       	mov	r24, r20
 b34:	6a e0       	ldi	r22, 0x0A	; 10
 b36:	0e 94 bb 05 	call	0xb76	; 0xb76 <__udivmodqi4>
 b3a:	80 5d       	subi	r24, 0xD0	; 208
 b3c:	11 96       	adiw	r26, 0x01	; 1
 b3e:	8c 93       	st	X, r24
 b40:	80 53       	subi	r24, 0x30	; 48
 b42:	28 2f       	mov	r18, r24
 b44:	30 e0       	ldi	r19, 0x00	; 0
 b46:	c9 01       	movw	r24, r18
 b48:	88 0f       	add	r24, r24
 b4a:	99 1f       	adc	r25, r25
 b4c:	88 0f       	add	r24, r24
 b4e:	99 1f       	adc	r25, r25
 b50:	88 0f       	add	r24, r24
 b52:	99 1f       	adc	r25, r25
 b54:	22 0f       	add	r18, r18
 b56:	33 1f       	adc	r19, r19
 b58:	82 0f       	add	r24, r18
 b5a:	93 1f       	adc	r25, r19
 b5c:	48 1b       	sub	r20, r24
 b5e:	40 5d       	subi	r20, 0xD0	; 208
 b60:	41 83       	std	Z+1, r20	; 0x01
 b62:	12 82       	std	Z+2, r1	; 0x02
 b64:	08 95       	ret
 b66:	80 e3       	ldi	r24, 0x30	; 48
 b68:	80 83       	st	Z, r24
 b6a:	40 5d       	subi	r20, 0xD0	; 208
 b6c:	41 83       	std	Z+1, r20	; 0x01
 b6e:	12 82       	std	Z+2, r1	; 0x02
 b70:	08 95       	ret
 b72:	dc 01       	movw	r26, r24
 b74:	bb cf       	rjmp	.-138    	; 0xaec <PrintByte+0x16>

00000b76 <__udivmodqi4>:
 b76:	99 1b       	sub	r25, r25
 b78:	79 e0       	ldi	r23, 0x09	; 9
 b7a:	04 c0       	rjmp	.+8      	; 0xb84 <__udivmodqi4_ep>

00000b7c <__udivmodqi4_loop>:
 b7c:	99 1f       	adc	r25, r25
 b7e:	96 17       	cp	r25, r22
 b80:	08 f0       	brcs	.+2      	; 0xb84 <__udivmodqi4_ep>
 b82:	96 1b       	sub	r25, r22

00000b84 <__udivmodqi4_ep>:
 b84:	88 1f       	adc	r24, r24
 b86:	7a 95       	dec	r23
 b88:	c9 f7       	brne	.-14     	; 0xb7c <__udivmodqi4_loop>
 b8a:	80 95       	com	r24
 b8c:	08 95       	ret

00000b8e <_exit>:
 b8e:	f8 94       	cli

00000b90 <__stop_program>:
 b90:	ff cf       	rjmp	.-2      	; 0xb90 <__stop_program>
